; Function Attrs: mustprogress uwtable
define noundef ptr @_ZN6icu_7713ListFormatter14createInstanceERKNS_6LocaleER10UErrorCode(ptr noundef nonnull align 8 dereferenceable(217) %0, ptr noundef nonnull align 4 dereferenceable(4) %1) local_unnamed_addr #1 align 2 personality ptr @__gxx_personality_v0 {
  %3 = tail call noundef ptr @_ZN6icu_7713ListFormatter21getListFormatInternalERKNS_6LocaleEPKcR10UErrorCode(ptr noundef nonnull align 8 dereferenceable(217) %0, ptr noundef nonnull @.str.10, ptr noundef nonnull align 4 dereferenceable(4) %1)
  %4 = load i32, ptr %1, align 4, !tbaa !13
  %5 = icmp slt i32 %4, 1
  br i1 %5, label %6, label %_ZN6icu_7713ListFormatter14createInstanceERKNS_6LocaleE18UListFormatterType19UListFormatterWidthR10UErrorCode.exit

6:                                                ; preds = %2
  %7 = tail call noundef ptr @_ZN6icu_777UMemorynwEm(i64 noundef 24) #19
  %8 = icmp eq ptr %7, null
  br i1 %8, label %_ZN6icu_7713ListFormatter14createInstanceERKNS_6LocaleEPKcR10UErrorCode.exit.sink.split.i, label %9

9:                                                ; preds = %6
  invoke void @_ZN6icu_7713ListFormatterC1EPKNS_18ListFormatInternalE(ptr noundef nonnull align 8 dereferenceable(24) %7, ptr noundef %3)
          to label %_ZN6icu_7713ListFormatter14createInstanceERKNS_6LocaleE18UListFormatterType19UListFormatterWidthR10UErrorCode.exit unwind label %10

10:                                               ; preds = %9
  %11 = landingpad { ptr, i32 }
          cleanup
  tail call void @_ZN6icu_777UMemorydlEPv(ptr noundef nonnull %7) #19
  resume { ptr, i32 } %11

_ZN6icu_7713ListFormatter14createInstanceERKNS_6LocaleEPKcR10UErrorCode.exit.sink.split.i: ; preds = %6
  store i32 7, ptr %1, align 4, !tbaa !13
  br label %_ZN6icu_7713ListFormatter14createInstanceERKNS_6LocaleE18UListFormatterType19UListFormatterWidthR10UErrorCode.exit

_ZN6icu_7713ListFormatter14createInstanceERKNS_6LocaleE18UListFormatterType19UListFormatterWidthR10UErrorCode.exit: ; preds = %2, %9, %_ZN6icu_7713ListFormatter14createInstanceERKNS_6LocaleEPKcR10UErrorCode.exit.sink.split.i
  %.0.i = phi ptr [ null, %2 ], [ %7, %9 ], [ null, %_ZN6icu_7713ListFormatter14createInstanceERKNS_6LocaleEPKcR10UErrorCode.exit.sink.split.i ]
  ret ptr %.0.i
}